	.file	"test.cpp"
	.section .rdata,"dr"
__ZStL19piecewise_construct:
	.space 1
__ZStL13allocator_arg:
	.space 1
__ZStL6ignore:
	.space 1
	.section	.text$_ZSt4moveIRiEONSt16remove_referenceIT_E4typeEOS2_,"x"
	.linkonce discard
	.globl	__ZSt4moveIRiEONSt16remove_referenceIT_E4typeEOS2_
	.def	__ZSt4moveIRiEONSt16remove_referenceIT_E4typeEOS2_;	.scl	2;	.type	32;	.endef
__ZSt4moveIRiEONSt16remove_referenceIT_E4typeEOS2_:
LFB2668:
	.cfi_startproc
	pushl	%ebp
	.cfi_def_cfa_offset 8
	.cfi_offset 5, -8
	movl	%esp, %ebp
	.cfi_def_cfa_register 5
	movl	8(%ebp), %eax
	popl	%ebp
	.cfi_restore 5
	.cfi_def_cfa 4, 4
	ret
	.cfi_endproc
LFE2668:
	.text
	.globl	__Z1fv
	.def	__Z1fv;	.scl	2;	.type	32;	.endef
__Z1fv:
LFB2667:
	.cfi_startproc
	pushl	%ebp
	.cfi_def_cfa_offset 8
	.cfi_offset 5, -8
	movl	%esp, %ebp
	.cfi_def_cfa_register 5
	subl	$20, %esp
	movl	$10, -8(%ebp)
	leal	-8(%ebp), %eax
	movl	%eax, (%esp)
	call	__ZSt4moveIRiEONSt16remove_referenceIT_E4typeEOS2_
	movl	(%eax), %eax
	movl	%eax, -4(%ebp)
	leave
	.cfi_restore 5
	.cfi_def_cfa 4, 4
	ret
	.cfi_endproc
LFE2667:
	.ident	"GCC: (GNU) 4.8.1"
